; Function Attrs: mustprogress uwtable
define hidden void @_ZN13IlmThread_3_29TaskGroup4DataC2Ev(ptr noundef nonnull align 8 dereferenceable(48) %this) unnamed_addr #0 align 2 {
entry:
  store i32 0, ptr %this, align 8
  %inFlight = getelementptr inbounds i8, ptr %this, i64 4
  store i32 0, ptr %inFlight, align 4
  %isEmpty = getelementptr inbounds i8, ptr %this, i64 8
  tail call void @_ZN13IlmThread_3_29SemaphoreC1Ej(ptr noundef nonnull align 8 dereferenceable(40) %isEmpty, i32 noundef 1)
  ret void
}